Certificate:
    Data:
        Version: 3 (0x2)
        Serial Number:
            44:b2:e4:de:41:f2:56:54:94:ba:d0:29:69:b1:d9:cb
        Signature Algorithm: sha256WithRSAEncryption
        Issuer: CN=Root_CA
        Validity
            Not Before: Apr 25 07:13:13 2025 GMT
            Not After : Jul 29 07:13:13 2027 GMT
        Subject: CN=jp
        Subject Public Key Info:
            Public Key Algorithm: rsaEncryption
                Public-Key: (2048 bit)
                Modulus:
                    00:c6:20:99:88:58:85:ce:f7:79:32:8d:ba:63:3e:
                    31:db:f3:e8:ee:24:7e:07:57:12:b7:91:e2:cd:14:
                    15:3a:5a:e3:e2:ca:8b:9b:50:67:5e:50:7c:2e:1f:
                    d4:8d:bc:bb:08:b7:e5:04:6b:61:c7:85:9c:ea:85:
                    55:5c:69:1b:c2:b7:5d:4a:72:2f:56:fe:03:c5:72:
                    26:4c:ed:fd:04:4f:bd:a3:17:5f:49:8e:2e:75:c2:
                    7e:c1:76:e2:03:c9:b4:39:1c:b6:01:ea:80:c5:62:
                    a0:2b:df:0e:9b:77:f5:e4:2a:9d:27:ff:c8:1a:5a:
                    57:f4:38:44:55:27:d0:03:d2:40:05:fc:c0:7e:fc:
                    4a:41:68:a6:93:25:c0:cc:b2:4a:bb:7b:05:ef:1d:
                    a3:b8:2d:6f:7b:2d:76:a4:6f:d6:e1:02:e4:79:f9:
                    db:17:56:cd:cc:db:4a:fd:f5:56:db:d0:38:0c:f4:
                    5d:4b:b7:dc:bf:5b:98:e8:cc:78:99:6c:9c:c8:38:
                    d7:be:25:b1:eb:10:94:ee:cb:c5:31:8e:58:07:33:
                    0e:33:1f:2b:bc:f4:d1:2a:62:a5:55:b7:90:bd:1e:
                    28:d4:f2:f8:7a:35:e3:41:b9:fd:a6:4a:8f:e5:74:
                    21:46:2b:d1:87:e3:90:44:20:83:36:c3:28:2b:99:
                    f2:89
                Exponent: 65537 (0x10001)
        X509v3 extensions:
            X509v3 Basic Constraints: 
                CA:FALSE
            X509v3 Subject Key Identifier: 
                6B:89:74:08:AB:AB:FA:20:FD:01:43:6D:95:EA:28:7A:C9:AC:EE:89
            X509v3 Authority Key Identifier: 
                keyid:AF:ED:04:B5:69:72:7A:01:08:4F:AD:1E:EE:B1:47:6C:80:20:5C:F0
                DirName:/CN=Root_CA
                serial:2C:C1:79:E5:0B:B8:09:66:7F:46:8C:50:86:2C:DB:2F:AA:BB:2C:9A
            X509v3 Extended Key Usage: 
                TLS Web Client Authentication
            X509v3 Key Usage: 
                Digital Signature
    Signature Algorithm: sha256WithRSAEncryption
    Signature Value:
        64:8a:2d:a1:ae:eb:50:df:b4:26:30:4c:06:a3:2c:a6:8c:78:
        69:ad:a8:ab:f4:fe:49:d4:09:03:48:43:9b:3d:7e:c1:aa:22:
        20:fb:59:75:3f:ff:d8:fc:4d:79:64:a4:75:ed:e4:c8:be:5d:
        f1:aa:9e:ec:67:e3:d4:80:bd:10:ba:a5:3c:44:4f:23:72:1e:
        91:68:cd:70:11:ae:e2:f1:48:86:3b:f9:9b:e1:97:51:ce:71:
        6b:e7:29:6d:ee:71:6e:16:c4:c0:de:4f:c5:c1:54:36:5a:28:
        ca:bd:ef:37:73:2a:2c:e5:0c:5e:60:63:6f:e5:b5:64:5d:f6:
        f1:94:9f:0b:b8:6b:c5:73:7e:12:6a:ff:af:f4:06:7b:6e:cd:
        93:5e:87:24:b4:dd:d5:b0:9b:02:73:52:48:d5:b5:7f:78:98:
        b2:03:25:bb:50:81:27:10:e8:f4:83:c5:18:1f:ae:55:7c:d4:
        47:0b:c0:cf:ec:0a:6a:b2:13:46:1d:05:80:56:4b:cd:41:07:
        f2:27:fa:4a:3a:02:db:01:7d:c4:e0:20:28:bf:8d:30:37:bf:
        cb:d6:f6:28:3b:0b:cf:ca:82:57:3a:29:46:e3:46:6b:69:5c:
        7f:4f:ae:8f:8d:79:bb:75:be:62:2b:7a:15:ff:7e:30:c6:a6:
        c2:04:db:39
-----BEGIN CERTIFICATE-----
MIIDSDCCAjCgAwIBAgIQRLLk3kHyVlSUutApabHZyzANBgkqhkiG9w0BAQsFADAS
MRAwDgYDVQQDDAdSb290X0NBMB4XDTI1MDQyNTA3MTMxM1oXDTI3MDcyOTA3MTMx
M1owDTELMAkGA1UEAwwCanAwggEiMA0GCSqGSIb3DQEBAQUAA4IBDwAwggEKAoIB
AQDGIJmIWIXO93kyjbpjPjHb8+juJH4HVxK3keLNFBU6WuPiyoubUGdeUHwuH9SN
vLsIt+UEa2HHhZzqhVVcaRvCt11Kci9W/gPFciZM7f0ET72jF19Jji51wn7BduID
ybQ5HLYB6oDFYqAr3w6bd/XkKp0n/8gaWlf0OERVJ9AD0kAF/MB+/EpBaKaTJcDM
skq7ewXvHaO4LW97LXakb9bhAuR5+dsXVs3M20r99Vbb0DgM9F1Lt9y/W5jozHiZ
bJzIONe+JbHrEJTuy8UxjlgHMw4zHyu89NEqYqVVt5C9HijU8vh6NeNBuf2mSo/l
dCFGK9GH45BEIIM2wygrmfKJAgMBAAGjgZ4wgZswCQYDVR0TBAIwADAdBgNVHQ4E
FgQUa4l0CKur+iD9AUNtleooesms7okwTQYDVR0jBEYwRIAUr+0EtWlyegEIT60e
7rFHbIAgXPChFqQUMBIxEDAOBgNVBAMMB1Jvb3RfQ0GCFCzBeeULuAlmf0aMUIYs
2y+quyyaMBMGA1UdJQQMMAoGCCsGAQUFBwMCMAsGA1UdDwQEAwIHgDANBgkqhkiG
9w0BAQsFAAOCAQEAZIotoa7rUN+0JjBMBqMspox4aa2oq/T+SdQJA0hDmz1+waoi
IPtZdT//2PxNeWSkde3kyL5d8aqe7Gfj1IC9ELqlPERPI3IekWjNcBGu4vFIhjv5
m+GXUc5xa+cpbe5xbhbEwN5PxcFUNlooyr3vN3MqLOUMXmBjb+W1ZF328ZSfC7hr
xXN+Emr/r/QGe27Nk16HJLTd1bCbAnNSSNW1f3iYsgMlu1CBJxDo9IPFGB+uVXzU
RwvAz+wKarITRh0FgFZLzUEH8if6SjoC2wF9xOAgKL+NMDe/y9b2KDsLz8qCVzop
RuNGa2lcf0+uj415u3W+Yit6Ff9+MMamwgTbOQ==
-----END CERTIFICATE-----
